; ModuleID = '54/279.c'
source_filename = "54/279.c"
target datalayout = "e-m:e-p270:32:32-p271:32:32-p272:64:64-i64:64-f80:128-n8:16:32:64-S128"
target triple = "x86_64-pc-linux-gnu"

@.str = private unnamed_addr constant [6 x i8] c"%d %d\00", align 1
@.str.1 = private unnamed_addr constant [3 x i8] c"%d\00", align 1

; Function Attrs: noinline nounwind uwtable
define dso_local void @main() #0 {
  %1 = alloca i32, align 4
  %2 = alloca i32, align 4
  %3 = alloca i32, align 4
  %4 = alloca i32, align 4
  store i32 1, i32* %4, align 4
  %5 = call i32 (i8*, ...) @__isoc99_scanf(i8* getelementptr inbounds ([6 x i8], [6 x i8]* @.str, i64 0, i64 0), i32* %1, i32* %2)
  %6 = load i32, i32* %1, align 4
  %7 = icmp eq i32 %6, 2
  br i1 %7, label %8, label %11

8:                                                ; preds = %0
  %9 = load i32, i32* %2, align 4
  %10 = sub nsw i32 8, %9
  store i32 %10, i32* %3, align 4
  br label %30

11:                                               ; preds = %0
  %12 = load i32, i32* %1, align 4
  store i32 %12, i32* %3, align 4
  br label %13

13:                                               ; preds = %19, %11
  %14 = load i32, i32* %3, align 4
  %15 = load i32, i32* %1, align 4
  %16 = mul nsw i32 %14, %15
  store i32 %16, i32* %3, align 4
  %17 = load i32, i32* %4, align 4
  %18 = add nsw i32 %17, 1
  store i32 %18, i32* %4, align 4
  br label %19

19:                                               ; preds = %13
  %20 = load i32, i32* %4, align 4
  %21 = load i32, i32* %1, align 4
  %22 = icmp ne i32 %20, %21
  br i1 %22, label %13, label %23

23:                                               ; preds = %19
  %24 = load i32, i32* %3, align 4
  %25 = load i32, i32* %1, align 4
  %26 = sub nsw i32 %25, 1
  %27 = load i32, i32* %2, align 4
  %28 = mul nsw i32 %26, %27
  %29 = sub nsw i32 %24, %28
  store i32 %29, i32* %3, align 4
  br label %30

30:                                               ; preds = %23, %8
  %31 = load i32, i32* %3, align 4
  %32 = call i32 (i8*, ...) @printf(i8* getelementptr inbounds ([3 x i8], [3 x i8]* @.str.1, i64 0, i64 0), i32 %31)
  ret void
}

declare dso_local i32 @__isoc99_scanf(i8*, ...) #1

declare dso_local i32 @printf(i8*, ...) #1


!llvm.module.flags = !{!0}
!llvm.ident = !{!1}

!0 = !{i32 1, !"wchar_size", i32 4}
!1 = !{!"clang version 10.0.0-4ubuntu1 "}
